; Function Attrs: mustprogress uwtable
define internal fastcc void @"_ZZN8facebook5velox6memory15MallocAllocator30allocateContiguousWithoutRetryEmPNS1_10AllocationERNS1_20ContiguousAllocationESt8functionIFvlbEEmENK3$_0clEv"(ptr nocapture noundef nonnull readonly align 8 dereferenceable(56) %this) unnamed_addr #0 align 2 personality ptr @__gxx_personality_v0 {
entry:
  %agg.tmp = alloca %"class.std::function", align 8
  %0 = getelementptr inbounds i8, ptr %this, i64 8
  %1 = load ptr, ptr %0, align 8
  %2 = getelementptr inbounds i8, ptr %this, i64 16
  %3 = load ptr, ptr %2, align 8
  %4 = load i64, ptr %3, align 8
  %5 = getelementptr inbounds i8, ptr %this, i64 24
  %6 = load ptr, ptr %5, align 8
  %7 = load ptr, ptr %6, align 8
  %8 = getelementptr inbounds i8, ptr %this, i64 32
  %9 = load ptr, ptr %8, align 8
  %10 = getelementptr inbounds i8, ptr %this, i64 40
  %11 = load ptr, ptr %10, align 8
  %_M_manager.i.i = getelementptr inbounds i8, ptr %agg.tmp, i64 16
  %_M_invoker.i = getelementptr inbounds i8, ptr %agg.tmp, i64 24
  %_M_manager.i.i.i = getelementptr inbounds i8, ptr %11, i64 16
  call void @llvm.memset.p0.i64(ptr noundef nonnull align 8 dereferenceable(32) %agg.tmp, i8 0, i64 32, i1 false)
  %12 = load ptr, ptr %_M_manager.i.i.i, align 8
  %tobool.not.i.i.not.i = icmp eq ptr %12, null
  br i1 %tobool.not.i.i.not.i, label %_ZNSt8functionIFvlbEEC2ERKS1_.exit, label %if.then.i

if.then.i:                                        ; preds = %entry
  %call3.i = invoke noundef zeroext i1 %12(ptr noundef nonnull align 8 dereferenceable(16) %agg.tmp, ptr noundef nonnull align 8 dereferenceable(16) %11, i32 noundef 2)
          to label %invoke.cont.i unwind label %lpad.i

invoke.cont.i:                                    ; preds = %if.then.i
  %_M_invoker4.i = getelementptr inbounds i8, ptr %11, i64 24
  %13 = load ptr, ptr %_M_invoker4.i, align 8
  store ptr %13, ptr %_M_invoker.i, align 8
  %14 = load ptr, ptr %_M_manager.i.i.i, align 8
  store ptr %14, ptr %_M_manager.i.i, align 8
  br label %_ZNSt8functionIFvlbEEC2ERKS1_.exit

lpad.i:                                           ; preds = %if.then.i
  %15 = landingpad { ptr, i32 }
          cleanup
  %16 = load ptr, ptr %_M_manager.i.i, align 8
  %tobool.not.i.i = icmp eq ptr %16, null
  br i1 %tobool.not.i.i, label %common.resume, label %if.then.i.i

if.then.i.i:                                      ; preds = %lpad.i
  %call.i.i = invoke noundef zeroext i1 %16(ptr noundef nonnull align 8 dereferenceable(16) %agg.tmp, ptr noundef nonnull align 8 dereferenceable(16) %agg.tmp, i32 noundef 3)
          to label %common.resume unwind label %terminate.lpad.i.i

terminate.lpad.i.i:                               ; preds = %if.then.i.i
  %17 = landingpad { ptr, i32 }
          catch ptr null
  %18 = extractvalue { ptr, i32 } %17, 0
  call void @__clang_call_terminate(ptr %18) #29
  unreachable

common.resume:                                    ; preds = %if.then.i.i9, %lpad, %lpad.i, %if.then.i.i
  %common.resume.op = phi { ptr, i32 } [ %15, %if.then.i.i ], [ %15, %lpad.i ], [ %26, %lpad ], [ %26, %if.then.i.i9 ]
  resume { ptr, i32 } %common.resume.op

_ZNSt8functionIFvlbEEC2ERKS1_.exit:               ; preds = %entry, %invoke.cont.i
  %19 = getelementptr inbounds i8, ptr %this, i64 48
  %20 = load ptr, ptr %19, align 8
  %21 = load i64, ptr %20, align 8
  %call = invoke noundef zeroext i1 @_ZN8facebook5velox6memory15MallocAllocator22allocateContiguousImplEmPNS1_10AllocationERNS1_20ContiguousAllocationESt8functionIFvlbEEm(ptr noundef nonnull align 8 dereferenceable(1016) %1, i64 noundef %4, ptr noundef %7, ptr noundef nonnull align 8 dereferenceable(32) %9, ptr noundef nonnull %agg.tmp, i64 noundef %21)
          to label %invoke.cont unwind label %lpad

invoke.cont:                                      ; preds = %_ZNSt8functionIFvlbEEC2ERKS1_.exit
  %22 = load ptr, ptr %this, align 8
  %frombool = zext i1 %call to i8
  store i8 %frombool, ptr %22, align 1
  %23 = load ptr, ptr %_M_manager.i.i, align 8
  %tobool.not.i.i2 = icmp eq ptr %23, null
  br i1 %tobool.not.i.i2, label %_ZNSt8functionIFvlbEED2Ev.exit, label %if.then.i.i3

if.then.i.i3:                                     ; preds = %invoke.cont
  %call.i.i4 = invoke noundef zeroext i1 %23(ptr noundef nonnull align 8 dereferenceable(16) %agg.tmp, ptr noundef nonnull align 8 dereferenceable(16) %agg.tmp, i32 noundef 3)
          to label %_ZNSt8functionIFvlbEED2Ev.exit unwind label %terminate.lpad.i.i5

terminate.lpad.i.i5:                              ; preds = %if.then.i.i3
  %24 = landingpad { ptr, i32 }
          catch ptr null
  %25 = extractvalue { ptr, i32 } %24, 0
  call void @__clang_call_terminate(ptr %25) #29
  unreachable

_ZNSt8functionIFvlbEED2Ev.exit:                   ; preds = %invoke.cont, %if.then.i.i3
  ret void

lpad:                                             ; preds = %_ZNSt8functionIFvlbEEC2ERKS1_.exit
  %26 = landingpad { ptr, i32 }
          cleanup
  %27 = load ptr, ptr %_M_manager.i.i, align 8
  %tobool.not.i.i8 = icmp eq ptr %27, null
  br i1 %tobool.not.i.i8, label %common.resume, label %if.then.i.i9

if.then.i.i9:                                     ; preds = %lpad
  %call.i.i10 = invoke noundef zeroext i1 %27(ptr noundef nonnull align 8 dereferenceable(16) %agg.tmp, ptr noundef nonnull align 8 dereferenceable(16) %agg.tmp, i32 noundef 3)
          to label %common.resume unwind label %terminate.lpad.i.i11

terminate.lpad.i.i11:                             ; preds = %if.then.i.i9
  %28 = landingpad { ptr, i32 }
          catch ptr null
  %29 = extractvalue { ptr, i32 } %28, 0
  call void @__clang_call_terminate(ptr %29) #29
  unreachable
}